; Function Attrs: nounwind uwtable
define dso_local ptr @slurmdb_qos_str(ptr noundef %0, i32 noundef %1) local_unnamed_addr #0 {
  %3 = alloca i32, align 4
  store i32 %1, ptr %3, align 4
  %.not = icmp eq ptr %0, null
  br i1 %.not, label %4, label %6

4:                                                ; preds = %2
  %5 = tail call i32 (ptr, ...) @error(ptr noundef nonnull @.str.9) #19
  br label %16

6:                                                ; preds = %2
  %.not7 = icmp eq i32 %1, 0
  br i1 %.not7, label %7, label %11

7:                                                ; preds = %6
  %8 = tail call i32 @get_log_level() #19
  %9 = icmp sgt i32 %8, 5
  br i1 %9, label %10, label %16

10:                                               ; preds = %7
  tail call void (i32, ptr, ...) @log_var(i32 noundef 6, ptr noundef nonnull @.str.10) #19
  br label %16

11:                                               ; preds = %6
  %12 = call ptr @list_find_first(ptr noundef nonnull %0, ptr noundef nonnull @slurmdb_find_qos_in_list, ptr noundef nonnull %3) #19
  %.not8 = icmp eq ptr %12, null
  br i1 %.not8, label %16, label %13

13:                                               ; preds = %11
  %14 = getelementptr inbounds nuw i8, ptr %12, i64 264
  %15 = load ptr, ptr %14, align 8
  br label %16

16:                                               ; preds = %11, %7, %10, %13, %4
  %.0 = phi ptr [ %15, %13 ], [ null, %4 ], [ @.str.11, %10 ], [ @.str.11, %7 ], [ null, %11 ]
  ret ptr %.0
}